target datalayout = "e-m:e-p270:32:32-p271:32:32-p272:64:64-i64:64-i128:128-f80:128-n8:16:32:64-S128"
target triple = "x86_64-pc-linux-gnu"

%struct.timeval = type { i64, i64 }
%struct.fd_set = type { [16 x i64] }

@new_resolved_objects = internal global i8 0, align 1
@async_dns_initialized = internal global i8 0, align 1
@ghba_chan = internal global ptr null, align 8
@stderr = external global ptr, align 8
@.str.53 = private unnamed_addr constant [47 x i8] c"Warning: call to select() failed, error is %s\0A\00", align 1

; Function Attrs: null_pointer_is_valid sspstrong uwtable
define zeroext i1 @host_name_lookup_process() #3 {
  %1 = alloca i1, align 1
  %2 = alloca %struct.timeval, align 8
  %3 = alloca i32, align 4
  %4 = alloca %struct.fd_set, align 8
  %5 = alloca %struct.fd_set, align 8
  %6 = alloca i8, align 1
  %7 = alloca i32, align 4
  %8 = alloca i32, align 4
  %9 = alloca ptr, align 8
  %10 = alloca i32, align 4
  %11 = alloca ptr, align 8
  call void @llvm.lifetime.start.p0(i64 16, ptr %2) #16
  call void @llvm.memset.p0.i64(ptr align 8 %2, i8 0, i64 16, i1 false)
  call void @llvm.lifetime.start.p0(i64 4, ptr %3) #16
  call void @llvm.lifetime.start.p0(i64 128, ptr %4) #16
  call void @llvm.lifetime.start.p0(i64 128, ptr %5) #16
  call void @llvm.lifetime.start.p0(i64 1, ptr %6) #16
  %12 = load i8, ptr @new_resolved_objects, align 1, !range !8, !noundef !9
  %13 = trunc i8 %12 to i1
  %14 = zext i1 %13 to i8
  store i8 %14, ptr %6, align 1
  store i8 0, ptr @new_resolved_objects, align 1
  %15 = call zeroext i1 @maxmind_db_lookup_process()
  %16 = zext i1 %15 to i32
  %17 = load i8, ptr %6, align 1, !range !8, !noundef !9
  %18 = trunc i8 %17 to i1
  %19 = zext i1 %18 to i32
  %20 = or i32 %19, %16
  %21 = icmp ne i32 %20, 0
  %22 = zext i1 %21 to i8
  store i8 %22, ptr %6, align 1
  %23 = load i8, ptr @async_dns_initialized, align 1, !range !8, !noundef !9
  %24 = trunc i8 %23 to i1
  br i1 %24, label %28, label %25

25:                                               ; preds = %0
  %26 = load i8, ptr %6, align 1, !range !8, !noundef !9
  %27 = trunc i8 %26 to i1
  store i1 %27, ptr %1, align 1
  store i32 1, ptr %7, align 4
  br label %89

28:                                               ; preds = %0
  call void @process_async_dns_queue()
  br label %29

29:                                               ; preds = %28
  call void @llvm.lifetime.start.p0(i64 4, ptr %8) #16
  call void @llvm.lifetime.start.p0(i64 8, ptr %9) #16
  store ptr %4, ptr %9, align 8
  store i32 0, ptr %8, align 4
  br label %30

30:                                               ; preds = %40, %29
  %31 = load i32, ptr %8, align 4
  %32 = zext i32 %31 to i64
  %33 = icmp ult i64 %32, 16
  br i1 %33, label %34, label %43

34:                                               ; preds = %30
  %35 = load ptr, ptr %9, align 8
  %36 = getelementptr inbounds nuw %struct.fd_set, ptr %35, i32 0, i32 0
  %37 = load i32, ptr %8, align 4
  %38 = zext i32 %37 to i64
  %39 = getelementptr [16 x i64], ptr %36, i64 0, i64 %38
  store i64 0, ptr %39, align 8
  br label %40

40:                                               ; preds = %34
  %41 = load i32, ptr %8, align 4
  %42 = add i32 %41, 1
  store i32 %42, ptr %8, align 4
  br label %30, !llvm.loop !19

43:                                               ; preds = %30
  call void @llvm.lifetime.end.p0(i64 8, ptr %9) #16
  call void @llvm.lifetime.end.p0(i64 4, ptr %8) #16
  br label %44

44:                                               ; preds = %43
  br label %45

45:                                               ; preds = %44
  br label %46

46:                                               ; preds = %45
  call void @llvm.lifetime.start.p0(i64 4, ptr %10) #16
  call void @llvm.lifetime.start.p0(i64 8, ptr %11) #16
  store ptr %5, ptr %11, align 8
  store i32 0, ptr %10, align 4
  br label %47

47:                                               ; preds = %57, %46
  %48 = load i32, ptr %10, align 4
  %49 = zext i32 %48 to i64
  %50 = icmp ult i64 %49, 16
  br i1 %50, label %51, label %60

51:                                               ; preds = %47
  %52 = load ptr, ptr %11, align 8
  %53 = getelementptr inbounds nuw %struct.fd_set, ptr %52, i32 0, i32 0
  %54 = load i32, ptr %10, align 4
  %55 = zext i32 %54 to i64
  %56 = getelementptr [16 x i64], ptr %53, i64 0, i64 %55
  store i64 0, ptr %56, align 8
  br label %57

57:                                               ; preds = %51
  %58 = load i32, ptr %10, align 4
  %59 = add i32 %58, 1
  store i32 %59, ptr %10, align 4
  br label %47, !llvm.loop !20

60:                                               ; preds = %47
  call void @llvm.lifetime.end.p0(i64 8, ptr %11) #16
  call void @llvm.lifetime.end.p0(i64 4, ptr %10) #16
  br label %61

61:                                               ; preds = %60
  br label %62

62:                                               ; preds = %61
  %63 = load ptr, ptr @ghba_chan, align 8
  %64 = call i32 @ares_fds(ptr noundef %63, ptr noundef %4, ptr noundef %5)
  store i32 %64, ptr %3, align 4
  %65 = load i32, ptr %3, align 4
  %66 = icmp sgt i32 %65, 0
  br i1 %66, label %67, label %86

67:                                               ; preds = %62
  %68 = load i32, ptr %3, align 4
  %69 = call i32 @select(i32 noundef %68, ptr noundef %4, ptr noundef %5, ptr noundef null, ptr noundef %2)
  %70 = icmp eq i32 %69, -1
  br i1 %70, label %71, label %84

71:                                               ; preds = %67
  %72 = call ptr @__errno_location() #18
  %73 = load i32, ptr %72, align 4
  %74 = icmp ne i32 %73, 4
  br i1 %74, label %75, label %81

75:                                               ; preds = %71
  %76 = load ptr, ptr @stderr, align 8
  %77 = call ptr @__errno_location() #18
  %78 = load i32, ptr %77, align 4
  %79 = call ptr @g_strerror(i32 noundef %78) #18
  %80 = call i32 (ptr, i32, ptr, ...) @__fprintf_chk(ptr noundef %76, i32 noundef 2, ptr noundef @.str.53, ptr noundef %79)
  br label %81

81:                                               ; preds = %75, %71
  %82 = load i8, ptr %6, align 1, !range !8, !noundef !9
  %83 = trunc i8 %82 to i1
  store i1 %83, ptr %1, align 1
  store i32 1, ptr %7, align 4
  br label %89

84:                                               ; preds = %67
  %85 = load ptr, ptr @ghba_chan, align 8
  call void @ares_process(ptr noundef %85, ptr noundef %4, ptr noundef %5)
  br label %86

86:                                               ; preds = %84, %62
  %87 = load i8, ptr %6, align 1, !range !8, !noundef !9
  %88 = trunc i8 %87 to i1
  store i1 %88, ptr %1, align 1
  store i32 1, ptr %7, align 4
  br label %89

89:                                               ; preds = %86, %81, %25
  call void @llvm.lifetime.end.p0(i64 1, ptr %6) #16
  call void @llvm.lifetime.end.p0(i64 128, ptr %5) #16
  call void @llvm.lifetime.end.p0(i64 128, ptr %4) #16
  call void @llvm.lifetime.end.p0(i64 4, ptr %3) #16
  call void @llvm.lifetime.end.p0(i64 16, ptr %2) #16
  %90 = load i1, ptr %1, align 1
  ret i1 %90
}