; Function Attrs: null_pointer_is_valid sspstrong uwtable
define zeroext i1 @host_name_lookup_process() local_unnamed_addr #3 {
  %1 = alloca %struct.timeval, align 8
  %2 = alloca %struct.fd_set, align 8
  %3 = alloca %struct.fd_set, align 8
  call void @llvm.lifetime.start.p0(i64 16, ptr nonnull %1) #24
  call void @llvm.memset.p0.i64(ptr noundef nonnull align 8 dereferenceable(16) %1, i8 0, i64 16, i1 false)
  call void @llvm.lifetime.start.p0(i64 128, ptr nonnull %2) #24
  call void @llvm.lifetime.start.p0(i64 128, ptr nonnull %3) #24
  %.b21 = load i1, ptr @new_resolved_objects, align 1
  store i1 false, ptr @new_resolved_objects, align 1
  %4 = tail call zeroext i1 @maxmind_db_lookup_process()
  %.b2022 = load i1, ptr @async_dns_initialized, align 1
  br i1 %.b2022, label %.preheader.preheader, label %20

.preheader.preheader:                             ; preds = %0
  tail call fastcc void @process_async_dns_queue()
  call void @llvm.memset.p0.i64(ptr noundef nonnull align 8 dereferenceable(128) %2, i8 0, i64 128, i1 false)
  call void @llvm.memset.p0.i64(ptr noundef nonnull align 8 dereferenceable(128) %3, i8 0, i64 128, i1 false)
  %5 = load ptr, ptr @ghba_chan, align 8
  %6 = call i32 @ares_fds(ptr noundef %5, ptr noundef nonnull %2, ptr noundef nonnull %3)
  %7 = icmp sgt i32 %6, 0
  br i1 %7, label %8, label %20

8:                                                ; preds = %.preheader.preheader
  %9 = call i32 @select(i32 noundef %6, ptr noundef nonnull %2, ptr noundef nonnull %3, ptr noundef null, ptr noundef nonnull %1)
  %10 = icmp eq i32 %9, -1
  br i1 %10, label %11, label %18

11:                                               ; preds = %8
  %12 = tail call ptr @__errno_location() #25
  %13 = load i32, ptr %12, align 4
  %.not = icmp eq i32 %13, 4
  br i1 %.not, label %20, label %14

14:                                               ; preds = %11
  %15 = load ptr, ptr @stderr, align 8
  %16 = call ptr @g_strerror(i32 noundef %13) #25
  %17 = call i32 (ptr, i32, ptr, ...) @__fprintf_chk(ptr noundef %15, i32 noundef 2, ptr noundef nonnull @.str.53, ptr noundef %16)
  br label %20

18:                                               ; preds = %8
  %19 = load ptr, ptr @ghba_chan, align 8
  call void @ares_process(ptr noundef %19, ptr noundef nonnull %2, ptr noundef nonnull %3)
  br label %20

20:                                               ; preds = %.preheader.preheader, %18, %11, %14, %0
  %21 = or i1 %.b21, %4
  call void @llvm.lifetime.end.p0(i64 128, ptr nonnull %3) #24
  call void @llvm.lifetime.end.p0(i64 128, ptr nonnull %2) #24
  call void @llvm.lifetime.end.p0(i64 16, ptr nonnull %1) #24
  ret i1 %21
}